; Function Attrs: null_pointer_is_valid sspstrong uwtable
define ptr @wmem_tree_remove_string(ptr noundef captures(address_is_null) %0, ptr noundef %1, i32 noundef %2) local_unnamed_addr #0 {
  %4 = and i32 %2, 1
  %.not.i = icmp eq i32 %4, 0
  %5 = icmp eq ptr %0, null
  %6 = icmp eq ptr %1, null
  %or.cond.i5.i = or i1 %5, %6
  br i1 %.not.i, label %.split.i, label %.split4.i

.split4.i:                                        ; preds = %3
  br i1 %or.cond.i5.i, label %wmem_tree_lookup_string.exit.thread, label %7

7:                                                ; preds = %.split4.i
  %8 = getelementptr inbounds nuw i8, ptr %0, i64 16
  %.01626.i.i = load ptr, ptr %8, align 8
  %.not27.i.i = icmp eq ptr %.01626.i.i, null
  br i1 %.not27.i.i, label %wmem_tree_lookup_string.exit.thread, label %.lr.ph.i.i

.lr.ph.i.i:                                       ; preds = %7, %12
  %.01628.i.i = phi ptr [ %.016.i.i, %12 ], [ %.01626.i.i, %7 ]
  %9 = getelementptr inbounds nuw i8, ptr %.01628.i.i, i64 24
  %10 = load ptr, ptr %9, align 8
  %11 = tail call i32 @g_ascii_strcasecmp(ptr noundef %1, ptr noundef %10), !callees !18
  %.not22.i.i = icmp eq i32 %11, 0
  br i1 %.not22.i.i, label %wmem_tree_lookup_string.exit, label %12

12:                                               ; preds = %.lr.ph.i.i
  %13 = icmp slt i32 %11, 0
  %.218.in.v.i.i = select i1 %13, i64 8, i64 16
  %.218.in.i.i = getelementptr inbounds nuw i8, ptr %.01628.i.i, i64 %.218.in.v.i.i
  %.016.i.i = load ptr, ptr %.218.in.i.i, align 8
  %.not.i.i = icmp eq ptr %.016.i.i, null
  br i1 %.not.i.i, label %wmem_tree_lookup_string.exit.thread, label %.lr.ph.i.i, !llvm.loop !19

.split.i:                                         ; preds = %3
  br i1 %or.cond.i5.i, label %wmem_tree_lookup_string.exit.thread, label %14

14:                                               ; preds = %.split.i
  %15 = getelementptr inbounds nuw i8, ptr %0, i64 16
  %.01626.i6.i = load ptr, ptr %15, align 8
  %.not27.i7.i = icmp eq ptr %.01626.i6.i, null
  br i1 %.not27.i7.i, label %wmem_tree_lookup_string.exit.thread, label %.lr.ph.i8.i

.lr.ph.i8.i:                                      ; preds = %14, %19
  %.01628.i9.i = phi ptr [ %.016.i13.i, %19 ], [ %.01626.i6.i, %14 ]
  %16 = getelementptr inbounds nuw i8, ptr %.01628.i9.i, i64 24
  %17 = load ptr, ptr %16, align 8
  %18 = tail call i32 @strcmp(ptr noundef %1, ptr noundef %17), !callees !18
  %.not22.i10.i = icmp eq i32 %18, 0
  br i1 %.not22.i10.i, label %wmem_tree_lookup_string.exit, label %19

19:                                               ; preds = %.lr.ph.i8.i
  %20 = icmp slt i32 %18, 0
  %.218.in.v.i11.i = select i1 %20, i64 8, i64 16
  %.218.in.i12.i = getelementptr inbounds nuw i8, ptr %.01628.i9.i, i64 %.218.in.v.i11.i
  %.016.i13.i = load ptr, ptr %.218.in.i12.i, align 8
  %.not.i14.i = icmp eq ptr %.016.i13.i, null
  br i1 %.not.i14.i, label %wmem_tree_lookup_string.exit.thread, label %.lr.ph.i8.i, !llvm.loop !19

wmem_tree_lookup_string.exit:                     ; preds = %.lr.ph.i.i, %.lr.ph.i8.i
  %.01628.i9.lcssa.sink.i = phi ptr [ %.01628.i9.i, %.lr.ph.i8.i ], [ %.01628.i.i, %.lr.ph.i.i ]
  %21 = getelementptr inbounds nuw i8, ptr %.01628.i9.lcssa.sink.i, i64 32
  %22 = load ptr, ptr %21, align 8
  %.not = icmp eq ptr %22, null
  br i1 %.not, label %wmem_tree_lookup_string.exit.thread, label %23

23:                                               ; preds = %wmem_tree_lookup_string.exit
  tail call void @wmem_tree_insert_string(ptr noundef %0, ptr noundef %1, ptr noundef null, i32 noundef %2)
  br label %wmem_tree_lookup_string.exit.thread

wmem_tree_lookup_string.exit.thread:              ; preds = %12, %19, %14, %.split.i, %7, %.split4.i, %23, %wmem_tree_lookup_string.exit
  %phi.call.i9 = phi ptr [ %22, %23 ], [ null, %wmem_tree_lookup_string.exit ], [ null, %.split4.i ], [ null, %7 ], [ null, %.split.i ], [ null, %14 ], [ null, %19 ], [ null, %12 ]
  ret ptr %phi.call.i9
}